target datalayout = "e-m:e-p270:32:32-p271:32:32-p272:64:64-i64:64-i128:128-f80:128-n8:16:32:64-S128"
target triple = "x86_64-pc-linux-gnu"

%"class.LIEF::MachO::RelocationObject" = type { %"class.LIEF::MachO::Relocation", i8, i8, i32 }
%"class.LIEF::MachO::Relocation" = type { %"class.LIEF::Relocation.base", ptr, i8, i32, ptr, ptr }
%"class.LIEF::Relocation.base" = type <{ %"class.LIEF::Object", i64, i8 }>
%"class.LIEF::Object" = type { ptr }
%"struct.LIEF::MachO::details::relocation_info" = type { i32, i32 }
%"class.LIEF::Relocation" = type <{ %"class.LIEF::Object", i64, i8, [7 x i8] }>

@_ZTVN4LIEF5MachO10RelocationE = external unnamed_addr constant { [22 x ptr] }, align 8
@_ZTVN4LIEF10RelocationE = external unnamed_addr constant { [15 x ptr] }, align 8

; Function Attrs: mustprogress nounwind uwtable
define linkonce_odr hidden void @_ZN4LIEF10RelocationC2Ev(ptr noundef nonnull align 8 dereferenceable(17) %0) unnamed_addr #1 comdat align 2 {
  %2 = alloca ptr, align 8
  store ptr %0, ptr %2, align 8, !tbaa !58
  %3 = load ptr, ptr %2, align 8
  call void @_ZN4LIEF6ObjectC2Ev(ptr noundef nonnull align 8 dereferenceable(8) %3)
  store ptr getelementptr inbounds inrange(-16, 104) ({ [15 x ptr] }, ptr @_ZTVN4LIEF10RelocationE, i32 0, i32 0, i32 2), ptr %3, align 8, !tbaa !19
  %4 = getelementptr inbounds nuw %"class.LIEF::Relocation", ptr %3, i32 0, i32 1
  store i64 0, ptr %4, align 8, !tbaa !36
  %5 = getelementptr inbounds nuw %"class.LIEF::Relocation", ptr %3, i32 0, i32 2
  store i8 0, ptr %5, align 8, !tbaa !37
  ret void
}

; Function Attrs: mustprogress nounwind uwtable
define linkonce_odr hidden void @_ZN4LIEF5MachO10RelocationC2Ev(ptr noundef nonnull align 8 dereferenceable(56) %0) unnamed_addr #1 comdat align 2 {
  %2 = alloca ptr, align 8
  store ptr %0, ptr %2, align 8, !tbaa !39
  %3 = load ptr, ptr %2, align 8
  call void @_ZN4LIEF10RelocationC2Ev(ptr noundef nonnull align 8 dereferenceable(17) %3)
  store ptr getelementptr inbounds inrange(-16, 160) ({ [22 x ptr] }, ptr @_ZTVN4LIEF5MachO10RelocationE, i32 0, i32 0, i32 2), ptr %3, align 8, !tbaa !19
  %4 = getelementptr inbounds nuw %"class.LIEF::MachO::Relocation", ptr %3, i32 0, i32 1
  store ptr null, ptr %4, align 8, !tbaa !41
  %5 = getelementptr inbounds nuw %"class.LIEF::MachO::Relocation", ptr %3, i32 0, i32 2
  store i8 0, ptr %5, align 8, !tbaa !38
  %6 = getelementptr inbounds nuw %"class.LIEF::MachO::Relocation", ptr %3, i32 0, i32 3
  store i32 -1, ptr %6, align 4, !tbaa !42
  %7 = getelementptr inbounds nuw %"class.LIEF::MachO::Relocation", ptr %3, i32 0, i32 4
  store ptr null, ptr %7, align 8, !tbaa !43
  %8 = getelementptr inbounds nuw %"class.LIEF::MachO::Relocation", ptr %3, i32 0, i32 5
  store ptr null, ptr %8, align 8, !tbaa !44
  ret void
}

; Function Attrs: mustprogress nounwind uwtable
define void @_ZN4LIEF5MachO16RelocationObjectC2ERKNS0_7details15relocation_infoE(ptr noundef nonnull align 8 dereferenceable(64) %0, ptr noundef nonnull align 4 dereferenceable(8) %1) unnamed_addr #1 align 2 {
  %3 = alloca ptr, align 8
  %4 = alloca ptr, align 8
  store ptr %0, ptr %3, align 8, !tbaa !15
  store ptr %1, ptr %4, align 8, !tbaa !17
  %5 = load ptr, ptr %3, align 8
  call void @_ZN4LIEF5MachO10RelocationC2Ev(ptr noundef nonnull align 8 dereferenceable(56) %5)
  store ptr getelementptr inbounds inrange(-16, 160) ({ [22 x ptr] }, ptr @_ZTVN4LIEF5MachO16RelocationObjectE, i32 0, i32 0, i32 2), ptr %5, align 8, !tbaa !19
  %6 = getelementptr inbounds nuw %"class.LIEF::MachO::RelocationObject", ptr %5, i32 0, i32 1
  %7 = load ptr, ptr %4, align 8, !tbaa !17
  %8 = getelementptr inbounds nuw %"struct.LIEF::MachO::details::relocation_info", ptr %7, i32 0, i32 1
  %9 = load i32, ptr %8, align 4
  %10 = lshr i32 %9, 24
  %11 = and i32 %10, 1
  %12 = icmp ne i32 %11, 0
  %13 = zext i1 %12 to i8
  store i8 %13, ptr %6, align 8, !tbaa !21
  %14 = getelementptr inbounds nuw %"class.LIEF::MachO::RelocationObject", ptr %5, i32 0, i32 2
  store i8 0, ptr %14, align 1, !tbaa !32
  %15 = getelementptr inbounds nuw %"class.LIEF::MachO::RelocationObject", ptr %5, i32 0, i32 3
  store i32 0, ptr %15, align 4, !tbaa !33
  %16 = load ptr, ptr %4, align 8, !tbaa !17
  %17 = getelementptr inbounds nuw %"struct.LIEF::MachO::details::relocation_info", ptr %16, i32 0, i32 0
  %18 = load i32, ptr %17, align 4, !tbaa !34
  %19 = zext i32 %18 to i64
  %20 = getelementptr inbounds nuw %"class.LIEF::Relocation", ptr %5, i32 0, i32 1
  store i64 %19, ptr %20, align 8, !tbaa !36
  %21 = load ptr, ptr %4, align 8, !tbaa !17
  %22 = getelementptr inbounds nuw %"struct.LIEF::MachO::details::relocation_info", ptr %21, i32 0, i32 1
  %23 = load i32, ptr %22, align 4
  %24 = lshr i32 %23, 25
  %25 = and i32 %24, 3
  %26 = trunc i32 %25 to i8
  %27 = getelementptr inbounds nuw %"class.LIEF::Relocation", ptr %5, i32 0, i32 2
  store i8 %26, ptr %27, align 8, !tbaa !37
  %28 = load ptr, ptr %4, align 8, !tbaa !17
  %29 = getelementptr inbounds nuw %"struct.LIEF::MachO::details::relocation_info", ptr %28, i32 0, i32 1
  %30 = load i32, ptr %29, align 4
  %31 = lshr i32 %30, 28
  %32 = trunc i32 %31 to i8
  %33 = getelementptr inbounds nuw %"class.LIEF::MachO::Relocation", ptr %5, i32 0, i32 2
  store i8 %32, ptr %33, align 8, !tbaa !38
  ret void
}