; Function Attrs: mustprogress nounwind uwtable
define void @_ZN4LIEF5MachO16RelocationObjectC2ERKNS0_7details15relocation_infoE(ptr noundef nonnull align 8 dereferenceable(64) %0, ptr noundef nonnull readonly align 4 captures(none) dereferenceable(8) %1) unnamed_addr #1 align 2 {
  tail call void @_ZN4LIEF6ObjectC2Ev(ptr noundef nonnull align 8 dereferenceable(56) %0) #22
  %3 = getelementptr inbounds nuw i8, ptr %0, i64 8
  store i64 0, ptr %3, align 8, !tbaa !3
  %4 = getelementptr inbounds nuw i8, ptr %0, i64 16
  store i8 0, ptr %4, align 8, !tbaa !9
  %5 = getelementptr inbounds nuw i8, ptr %0, i64 24
  store ptr null, ptr %5, align 8, !tbaa !10
  %6 = getelementptr inbounds nuw i8, ptr %0, i64 32
  store i8 0, ptr %6, align 8, !tbaa !17
  %7 = getelementptr inbounds nuw i8, ptr %0, i64 36
  store i32 -1, ptr %7, align 4, !tbaa !18
  %8 = getelementptr inbounds nuw i8, ptr %0, i64 40
  tail call void @llvm.memset.p0.i64(ptr noundef nonnull align 8 dereferenceable(16) %8, i8 0, i64 16, i1 false)
  store ptr getelementptr inbounds nuw inrange(-16, 160) (i8, ptr @_ZTVN4LIEF5MachO16RelocationObjectE, i64 16), ptr %0, align 8, !tbaa !19
  %9 = getelementptr inbounds nuw i8, ptr %0, i64 56
  %10 = getelementptr inbounds nuw i8, ptr %1, i64 4
  %11 = load i32, ptr %10, align 4
  %12 = lshr i32 %11, 24
  %13 = trunc nuw i32 %12 to i8
  %14 = and i8 %13, 1
  store i8 %14, ptr %9, align 8, !tbaa !21
  %15 = getelementptr inbounds nuw i8, ptr %0, i64 57
  store i8 0, ptr %15, align 1, !tbaa !25
  %16 = getelementptr inbounds nuw i8, ptr %0, i64 60
  store i32 0, ptr %16, align 4, !tbaa !26
  %17 = load i32, ptr %1, align 4, !tbaa !27
  %18 = zext i32 %17 to i64
  store i64 %18, ptr %3, align 8, !tbaa !3
  %19 = load i32, ptr %10, align 4
  %20 = lshr i32 %19, 25
  %21 = trunc nuw nsw i32 %20 to i8
  %22 = and i8 %21, 3
  store i8 %22, ptr %4, align 8, !tbaa !9
  %23 = load i32, ptr %10, align 4
  %24 = lshr i32 %23, 28
  %25 = trunc nuw nsw i32 %24 to i8
  store i8 %25, ptr %6, align 8, !tbaa !17
  ret void
}